Certificate:
    Data:
        Version: 1 (0x0)
        Serial Number: 1 (0x1)
        Signature Algorithm: md5WithRSAEncryption
        Issuer: O=Raddningspatrullen, OU=squad/emailAddress=raddningspatrullen@googlegroups.com, L=Linkoping, ST=Ostergotland, C=SE, CN=raddnigspat
        Validity
            Not Before: Oct  6 07:30:07 2009 GMT
            Not After : Oct  6 07:30:07 2010 GMT
        Subject: C=SE, ST=Ostergotland, O=Raddningspatrullen, OU=squad, CN=raddnigspat
        Subject Public Key Info:
            Public Key Algorithm: rsaEncryption
            RSA Public Key: (1024 bit)
                Modulus (1024 bit):
                    00:ba:c1:dc:00:94:f7:dc:1d:be:55:1f:5b:50:0d:
                    e6:63:d4:b2:fe:01:80:7e:0f:f9:98:45:b8:07:25:
                    3c:33:db:83:f7:fb:2b:66:e6:65:e4:24:9b:c5:fc:
                    9a:8e:eb:7f:86:35:34:0a:05:12:67:46:7d:b7:31:
                    6e:f1:6e:98:95:6a:16:7e:06:8b:c3:8e:a1:a2:75:
                    b9:f2:d3:cc:d4:a9:2a:35:0d:1a:a5:5c:06:b5:ff:
                    35:33:87:d3:a2:ab:d3:c9:95:d1:5f:ec:1d:53:c8:
                    89:b2:5a:09:80:6d:f1:73:89:d0:78:c8:2a:64:c0:
                    a2:7c:37:77:40:e7:3b:d5:ab
                Exponent: 65537 (0x10001)
    Signature Algorithm: md5WithRSAEncryption
        60:cd:16:95:5d:42:01:44:1c:5a:87:4c:e3:34:56:6f:ca:c6:
        0e:cf:e3:f9:3b:17:83:28:80:f2:be:ef:09:15:de:ec:f8:60:
        dc:37:5e:1b:6c:62:9f:08:99:bd:b9:a5:86:75:b5:27:7e:3b:
        db:ce:14:d6:04:4a:fc:f9:5c:4a:ab:80:e7:87:42:03:54:1c:
        00:49:44:77:36:29:88:32:2d:72:17:56:bb:bf:06:e4:b5:9d:
        a5:e0:7c:e2:a1:f4:be:f1:07:c2:b2:eb:fd:4a:80:95:60:cf:
        10:60:e6:bc:da:8e:38:0a:0d:a3:26:8c:0b:fd:1a:7c:18:26:
        91:86
-----BEGIN CERTIFICATE-----
MIIChjCCAe8CAQEwDQYJKoZIhvcNAQEEBQAwga8xGzAZBgNVBAoTElJhZGRuaW5n
c3BhdHJ1bGxlbjEOMAwGA1UECxMFc3F1YWQxMjAwBgkqhkiG9w0BCQEWI3JhZGRu
aW5nc3BhdHJ1bGxlbkBnb29nbGVncm91cHMuY29tMRIwEAYDVQQHEwlMaW5rb3Bp
bmcxFTATBgNVBAgTDE9zdGVyZ290bGFuZDELMAkGA1UEBhMCU0UxFDASBgNVBAMT
C3JhZGRuaWdzcGF0MB4XDTA5MTAwNjA3MzAwN1oXDTEwMTAwNjA3MzAwN1owZzEL
MAkGA1UEBhMCU0UxFTATBgNVBAgTDE9zdGVyZ290bGFuZDEbMBkGA1UEChMSUmFk
ZG5pbmdzcGF0cnVsbGVuMQ4wDAYDVQQLEwVzcXVhZDEUMBIGA1UEAxMLcmFkZG5p
Z3NwYXQwgZ8wDQYJKoZIhvcNAQEBBQADgY0AMIGJAoGBALrB3ACU99wdvlUfW1AN
5mPUsv4BgH4P+ZhFuAclPDPbg/f7K2bmZeQkm8X8mo7rf4Y1NAoFEmdGfbcxbvFu
mJVqFn4Gi8OOoaJ1ufLTzNSpKjUNGqVcBrX/NTOH06Kr08mV0V/sHVPIibJaCYBt
8XOJ0HjIKmTAonw3d0DnO9WrAgMBAAEwDQYJKoZIhvcNAQEEBQADgYEAYM0WlV1C
AUQcWodM4zRWb8rGDs/j+TsXgyiA8r7vCRXe7Phg3DdeG2xinwiZvbmlhnW1J347
284U1gRK/PlcSquA54dCA1QcAElEdzYpiDItchdWu78G5LWdpeB84qH0vvEHwrLr
/UqAlWDPEGDmvNqOOAoNoyaMC/0afBgmkYY=
-----END CERTIFICATE-----
